# SymbolsHelper-Confirmed: 2.0 amd64
libroboptim-core.so.2 libroboptim-core2 #MINVER#
 _ZN8roboptim11SolverError9lastStateEv@Base 2.0
 _ZN8roboptim11SolverErrorC1ERKS0_@Base 2.0
 _ZN8roboptim11SolverErrorC1ERKSs@Base 2.0
 _ZN8roboptim11SolverErrorC1ERKSsRKNS_6ResultE@Base 2.0
 _ZN8roboptim11SolverErrorC2ERKS0_@Base 2.0
 _ZN8roboptim11SolverErrorC2ERKSs@Base 2.0
 _ZN8roboptim11SolverErrorC2ERKSsRKNS_6ResultE@Base 2.0
 _ZN8roboptim11SolverErrorD0Ev@Base 2.0
 _ZN8roboptim11SolverErrorD1Ev@Base 2.0
 _ZN8roboptim11SolverErrorD2Ev@Base 2.0
 _ZN8roboptim11resetindentERSo@Base 2.0
 _ZN8roboptim13GenericSolver5resetEv@Base 2.0
 _ZN8roboptim13GenericSolver6loggerE@Base 2.0
 _ZN8roboptim13GenericSolver7minimumEv@Base 2.0
 _ZN8roboptim13GenericSolverC1ERKS0_@Base 2.0
 _ZN8roboptim13GenericSolverC1Ev@Base 2.0
 _ZN8roboptim13GenericSolverC2ERKS0_@Base 2.0
 _ZN8roboptim13GenericSolverC2Ev@Base 2.0
 _ZN8roboptim13GenericSolverD0Ev@Base 2.0
 _ZN8roboptim13GenericSolverD1Ev@Base 2.0
 _ZN8roboptim13GenericSolverD2Ev@Base 2.0
 _ZN8roboptim13SolverWarningC1ERKSs@Base 2.0
 _ZN8roboptim13SolverWarningC2ERKSs@Base 2.0
 _ZN8roboptim13SolverWarningD0Ev@Base 2.0
 _ZN8roboptim13SolverWarningD1Ev@Base 2.0
 _ZN8roboptim13SolverWarningD2Ev@Base 2.0
 _ZN8roboptim13visualization7Gnuplot12push_commandENS0_7gnuplot7CommandE@Base 2.0
 _ZN8roboptim13visualization7GnuplotC1Ev@Base 2.0
 _ZN8roboptim13visualization7GnuplotC2Ev@Base 2.0
 _ZN8roboptim13visualization7GnuplotD1Ev@Base 2.0
 _ZN8roboptim13visualization7GnuplotD2Ev@Base 2.0
 _ZN8roboptim13visualization7GnuplotlsENS0_7gnuplot7CommandE@Base 2.0
 _ZN8roboptim13visualization7gnuplot2cdEPKc@Base 2.0
 _ZN8roboptim13visualization7gnuplot3pwdEv@Base 2.0
 _ZN8roboptim13visualization7gnuplot3setEPKcS3_@Base 2.0
 _ZN8roboptim13visualization7gnuplot4helpEPKc@Base 2.0
 _ZN8roboptim13visualization7gnuplot4quitEv@Base 2.0
 _ZN8roboptim13visualization7gnuplot4showEPKc@Base 2.0
 _ZN8roboptim13visualization7gnuplot5clearEv@Base 2.0
 _ZN8roboptim13visualization7gnuplot5resetEv@Base 2.0
 _ZN8roboptim13visualization7gnuplot5unsetEPKc@Base 2.0
 _ZN8roboptim13visualization7gnuplot6replotEv@Base 2.0
 _ZN8roboptim13visualization7gnuplot6rereadEv@Base 2.0
 _ZN8roboptim13visualization7gnuplot7CommandC1ESs@Base 2.0
 _ZN8roboptim13visualization7gnuplot7CommandC2ESs@Base 2.0
 _ZN8roboptim13visualization7gnuplot7CommandD1Ev@Base 2.0
 _ZN8roboptim13visualization7gnuplot7CommandD2Ev@Base 2.0
 _ZN8roboptim13visualization7gnuplot7commentEPKc@Base 2.0
 _ZN8roboptim13visualizationlsERSoRKNS0_7GnuplotE@Base 2.0
 _ZN8roboptim16ConstantFunctionC1ERKN5Eigen6MatrixIdLin1ELi1ELi0ELin1ELi1EEE@Base 2.0
 _ZN8roboptim16ConstantFunctionC2ERKN5Eigen6MatrixIdLin1ELi1ELi0ELin1ELi1EEE@Base 2.0
 _ZN8roboptim16ConstantFunctionD0Ev@Base 2.0
 _ZN8roboptim16ConstantFunctionD1Ev@Base 2.0
 _ZN8roboptim16ConstantFunctionD2Ev@Base 2.0
 _ZN8roboptim16IdentityFunctionC1ERKN5Eigen6MatrixIdLin1ELi1ELi0ELin1ELi1EEE@Base 2.0
 _ZN8roboptim16IdentityFunctionC2ERKN5Eigen6MatrixIdLin1ELi1ELi0ELin1ELi1EEE@Base 2.0
 _ZN8roboptim16IdentityFunctionD0Ev@Base 2.0
 _ZN8roboptim16IdentityFunctionD1Ev@Base 2.0
 _ZN8roboptim16IdentityFunctionD2Ev@Base 2.0
 _ZN8roboptim18ResultWithWarningsC1Ell@Base 2.0
 _ZN8roboptim18ResultWithWarningsC2Ell@Base 2.0
 _ZN8roboptim18ResultWithWarningsD0Ev@Base 2.0
 _ZN8roboptim18ResultWithWarningsD1Ev@Base 2.0
 _ZN8roboptim18ResultWithWarningsD2Ev@Base 2.0
 _ZN8roboptim24NumericQuadraticFunctionC1ERKN5Eigen6MatrixIdLin1ELin1ELi0ELin1ELin1EEERKNS2_IdLin1ELi1ELi0ELin1ELi1EEE@Base 2.0
 _ZN8roboptim24NumericQuadraticFunctionC2ERKN5Eigen6MatrixIdLin1ELin1ELi0ELin1ELin1EEERKNS2_IdLin1ELi1ELi0ELin1ELi1EEE@Base 2.0
 _ZN8roboptim24NumericQuadraticFunctionD0Ev@Base 2.0
 _ZN8roboptim24NumericQuadraticFunctionD1Ev@Base 2.0
 _ZN8roboptim24NumericQuadraticFunctionD2Ev@Base 2.0
 _ZN8roboptim5iendlERSo@Base 2.0
 _ZN8roboptim6ResultC1ERKS0_@Base 2.0
 _ZN8roboptim6ResultC1Ell@Base 2.0
 _ZN8roboptim6ResultC2ERKS0_@Base 2.0
 _ZN8roboptim6ResultC2Ell@Base 2.0
 _ZN8roboptim6ResultD0Ev@Base 2.0
 _ZN8roboptim6ResultD1Ev@Base 2.0
 _ZN8roboptim6ResultD2Ev@Base 2.0
 _ZN8roboptim6ResultaSERKS0_@Base 2.0
 _ZN8roboptim6detail15array_to_vectorERN5Eigen6MatrixIdLin1ELi1ELi0ELin1ELi1EEEPKd@Base 2.0
 _ZN8roboptim6detail15vector_to_arrayEPdRKN5Eigen6MatrixIdLin1ELi1ELi0ELin1ELi1EEE@Base 2.0
 _ZN8roboptim6indentERSo@Base 2.0
 _ZN8roboptim7decendlERSo@Base 2.0
 _ZN8roboptim7incendlERSo@Base 2.0
 _ZN8roboptim9decindentERSo@Base 2.0
 _ZN8roboptim9incindentERSo@Base 2.0
 _ZN8roboptimlsERSoRKNS_10NoSolutionE@Base 2.0
 _ZN8roboptimlsERSoRKNS_11SolverErrorE@Base 2.0
 _ZN8roboptimlsERSoRKNS_13GenericSolverE@Base 2.0
 _ZN8roboptimlsERSoRKNS_6ResultE@Base 2.0
 _ZN8roboptimlsERSoRKNS_9ParameterE@Base 2.0
 _ZNK8roboptim11SolverError5printERSo@Base 2.0
 _ZNK8roboptim11SolverError9lastStateEv@Base 2.0
 _ZNK8roboptim13GenericSolver5printERSo@Base 2.0
 _ZNK8roboptim13SolverWarning5printERSo@Base 2.0
 _ZNK8roboptim13visualization7Gnuplot5printERSo@Base 2.0
 _ZNK8roboptim13visualization7gnuplot7Command7commandEv@Base 2.0
 _ZNK8roboptim16ConstantFunction12impl_computeERN5Eigen6MatrixIdLin1ELi1ELi0ELin1ELi1EEERKS3_@Base 2.0
 _ZNK8roboptim16ConstantFunction13impl_gradientERN5Eigen6MatrixIdLin1ELi1ELi0ELin1ELi1EEERKS3_l@Base 2.0
 _ZNK8roboptim16ConstantFunction13impl_jacobianERN5Eigen6MatrixIdLin1ELin1ELi0ELin1ELin1EEERKNS2_IdLin1ELi1ELi0ELin1ELi1EEE@Base 2.0
 _ZNK8roboptim16ConstantFunction5printERSo@Base 2.0
 _ZNK8roboptim16IdentityFunction12impl_computeERN5Eigen6MatrixIdLin1ELi1ELi0ELin1ELi1EEERKS3_@Base 2.0
 _ZNK8roboptim16IdentityFunction13impl_gradientERN5Eigen6MatrixIdLin1ELi1ELi0ELin1ELi1EEERKS3_l@Base 2.0
 _ZNK8roboptim16IdentityFunction13impl_jacobianERN5Eigen6MatrixIdLin1ELin1ELi0ELin1ELin1EEERKNS2_IdLin1ELi1ELi0ELin1ELi1EEE@Base 2.0
 _ZNK8roboptim16IdentityFunction5printERSo@Base 2.0
 _ZNK8roboptim18ResultWithWarnings5printERSo@Base 2.0
 _ZNK8roboptim24NumericQuadraticFunction12impl_computeERN5Eigen6MatrixIdLin1ELi1ELi0ELin1ELi1EEERKS3_@Base 2.0
 _ZNK8roboptim24NumericQuadraticFunction12impl_hessianERN5Eigen6MatrixIdLin1ELin1ELi0ELin1ELin1EEERKNS2_IdLin1ELi1ELi0ELin1ELi1EEEl@Base 2.0
 _ZNK8roboptim24NumericQuadraticFunction13impl_gradientERN5Eigen6MatrixIdLin1ELi1ELi0ELin1ELi1EEERKS3_l@Base 2.0
 _ZNK8roboptim24NumericQuadraticFunction5printERSo@Base 2.0
 _ZNK8roboptim6Result5printERSo@Base 2.0
 (optional=templinst)_ZNSs12_S_constructISt15_Deque_iteratorIcRcPcEEES2_T_S4_RKSaIcESt20forward_iterator_tag@Base 2.0
 (optional=templinst)_ZNSs19_M_replace_dispatchISt15_Deque_iteratorIcRcPcEEERSsN9__gnu_cxx17__normal_iteratorIS2_SsEES7_T_S8_St12__false_type@Base 2.0
 (optional=templinst)_ZNSt11_Deque_baseIcSaIcEE17_M_initialize_mapEm@Base 2.0
 (optional=templinst)_ZNSt11_Deque_baseIcSaIcEED1Ev@Base 2.0
 (optional=templinst)_ZNSt11_Deque_baseIcSaIcEED2Ev@Base 2.0
 (optional=templinst)_ZNSt11__copy_moveILb0ELb0ESt26random_access_iterator_tagE8__copy_mIPKN8roboptim13SolverWarningEPS4_EET0_T_S9_S8_@Base 2.0
 (optional=templinst)_ZNSt11__copy_moveILb0ELb0ESt26random_access_iterator_tagE8__copy_mIPN8roboptim13SolverWarningES5_EET0_T_S7_S6_@Base 2.0
 (optional=templinst)_ZNSt12_Destroy_auxILb0EE9__destroyIPN5boost2io6detail11format_itemIcSt11char_traitsIcESaIcEEEEEvT_SB_@Base 2.0
 (optional=templinst)_ZNSt15basic_stringbufIcSt11char_traitsIcESaIcEED0Ev@Base 2.0
 (optional=templinst)_ZNSt15basic_stringbufIcSt11char_traitsIcESaIcEED1Ev@Base 2.0
 (optional=templinst)_ZNSt15basic_stringbufIcSt11char_traitsIcESaIcEED2Ev@Base 2.0
 (optional=templinst)_ZNSt5dequeIcSaIcEE13_M_insert_auxIN9__gnu_cxx17__normal_iteratorIPKcSsEEEEvSt15_Deque_iteratorIcRcPcET_SC_m@Base 2.0
 (optional=templinst)_ZNSt5dequeIcSaIcEE16_M_pop_front_auxEv@Base 2.0
 (optional=templinst)_ZNSt5dequeIcSaIcEE16_M_push_back_auxERKc@Base 2.0
 (optional=templinst)_ZNSt5dequeIcSaIcEE17_M_reallocate_mapEmb@Base 2.0
 (optional=templinst)_ZNSt5dequeIcSaIcEE23_M_new_elements_at_backEm@Base 2.0
 (optional=templinst)_ZNSt5dequeIcSaIcEE24_M_new_elements_at_frontEm@Base 2.0
 (optional=templinst)_ZNSt6vectorIN8roboptim13SolverWarningESaIS1_EEaSERKS3_@Base 2.0
 (optional=templinst)_ZNSt6vectorIN8roboptim13visualization7gnuplot7CommandESaIS3_EE13_M_insert_auxEN9__gnu_cxx17__normal_iteratorIPS3_S5_EERKS3_@Base 2.0
 (optional=templinst)_ZNSt6vectorIbSaIbEE14_M_fill_insertESt13_Bit_iteratormb@Base 2.0
 (optional=templinst)_ZSt13copy_backwardIcESt15_Deque_iteratorIT_RS1_PS1_ES4_S4_S4_@Base 2.0
 (optional=templinst)_ZSt4copyIcESt15_Deque_iteratorIT_RS1_PS1_ES4_S4_S4_@Base 2.0
 _ZTIN5boost9exceptionE@Base 2.0
 _ZTIN8roboptim11SolverErrorE@Base 2.0
 _ZTIN8roboptim13GenericSolverE@Base 2.0
 _ZTIN8roboptim13SolverWarningE@Base 2.0
 _ZTIN8roboptim16ConstantFunctionE@Base 2.0
 _ZTIN8roboptim16IdentityFunctionE@Base 2.0
 _ZTIN8roboptim18ResultWithWarningsE@Base 2.0
 _ZTIN8roboptim24NumericQuadraticFunctionE@Base 2.0
 _ZTIN8roboptim6ResultE@Base 2.0
 _ZTSN5boost9exceptionE@Base 2.0
 _ZTSN8roboptim11SolverErrorE@Base 2.0
 _ZTSN8roboptim13GenericSolverE@Base 2.0
 _ZTSN8roboptim13SolverWarningE@Base 2.0
 _ZTSN8roboptim16ConstantFunctionE@Base 2.0
 _ZTSN8roboptim16IdentityFunctionE@Base 2.0
 _ZTSN8roboptim18ResultWithWarningsE@Base 2.0
 _ZTSN8roboptim24NumericQuadraticFunctionE@Base 2.0
 _ZTSN8roboptim6ResultE@Base 2.0
 _ZTVN5boost9exceptionE@Base 2.0
 _ZTVN8roboptim11SolverErrorE@Base 2.0
 _ZTVN8roboptim13GenericSolverE@Base 2.0
 _ZTVN8roboptim13SolverWarningE@Base 2.0
 _ZTVN8roboptim16ConstantFunctionE@Base 2.0
 _ZTVN8roboptim16IdentityFunctionE@Base 2.0
 _ZTVN8roboptim18ResultWithWarningsE@Base 2.0
 _ZTVN8roboptim24NumericQuadraticFunctionE@Base 2.0
 _ZTVN8roboptim6ResultE@Base 2.0
